target datalayout = "e-m:e-p270:32:32-p271:32:32-p272:64:64-i64:64-i128:128-f80:128-n8:16:32:64-S128"
target triple = "x86_64-pc-linux-gnu"

%struct._psqlSettings = type { ptr, i32, ptr, i8, ptr, ptr, %struct.printQueryOpt, ptr, ptr, ptr, i8, i8, i32, i32, ptr, ptr, i8, [4 x ptr], i8, i32, ptr, i8, i32, ptr, ptr, i64, i64, i8, ptr, ptr, ptr, i8, i8, i8, i8, i8, i8, i8, i32, i32, i32, i32, i32, i32, i32, i32, ptr, ptr, ptr, i32, i8, i32 }
%struct.printQueryOpt = type { %struct.printTableOpt, ptr, ptr, ptr, i8, ptr, i32 }
%struct.printTableOpt = type { i32, i16, i32, i32, i16, i16, i32, i8, i8, i8, i8, i64, ptr, %struct.separator, %struct.separator, [2 x i8], i8, ptr, i32, i32, i32, i32, i32, i32 }
%struct.separator = type { ptr, i8 }
%struct.PQExpBufferData = type { ptr, i64, i64 }

@pset = external global %struct._psqlSettings, align 8
@.str.12 = private unnamed_addr constant [18 x i8] c"ORDER BY 1, 2, 4;\00", align 1
@.str.26 = private unnamed_addr constant [6 x i8] c"Owner\00", align 1
@.str.61 = private unnamed_addr constant [4 x i8] c"yes\00", align 1
@.str.62 = private unnamed_addr constant [3 x i8] c"no\00", align 1
@.str.108 = private unnamed_addr constant [10 x i8] c"t.typname\00", align 1
@.str.109 = private unnamed_addr constant [36 x i8] c"pg_catalog.format_type(t.oid, NULL)\00", align 1
@.str.110 = private unnamed_addr constant [37 x i8] c"pg_catalog.pg_type_is_visible(t.oid)\00", align 1
@.str.346 = private unnamed_addr constant [9 x i8] c"Default?\00", align 1
@listOperatorClasses.translate_columns = internal constant [7 x i8] zeroinitializer, align 1
@.str.566 = private unnamed_addr constant [3 x i8] c"AM\00", align 1
@.str.567 = private unnamed_addr constant [11 x i8] c"Input type\00", align 1
@.str.568 = private unnamed_addr constant [13 x i8] c"Storage type\00", align 1
@.str.569 = private unnamed_addr constant [15 x i8] c"Operator class\00", align 1
@.str.571 = private unnamed_addr constant [16 x i8] c"Operator family\00", align 1
@.str.573 = private unnamed_addr constant [132 x i8] c"  LEFT JOIN pg_catalog.pg_opfamily of ON of.oid = c.opcfamily\0A  LEFT JOIN pg_catalog.pg_namespace ofn ON ofn.oid = of.opfnamespace\0A\00", align 1
@.str.574 = private unnamed_addr constant [10 x i8] c"am.amname\00", align 1
@.str.575 = private unnamed_addr constant [11 x i8] c"tn.nspname\00", align 1
@.str.576 = private unnamed_addr constant [25 x i8] c"List of operator classes\00", align 1

; Function Attrs: nounwind uwtable
define dso_local zeroext i1 @listOperatorClasses(ptr noundef %0, ptr noundef %1, i1 noundef zeroext %2) #0 {
  %4 = alloca i1, align 1
  %5 = alloca ptr, align 8
  %6 = alloca ptr, align 8
  %7 = alloca i8, align 1
  %8 = alloca %struct.PQExpBufferData, align 8
  %9 = alloca ptr, align 8
  %10 = alloca %struct.printQueryOpt, align 8
  %11 = alloca i8, align 1
  %12 = alloca i32, align 4
  store ptr %0, ptr %5, align 8
  store ptr %1, ptr %6, align 8
  %13 = zext i1 %2 to i8
  store i8 %13, ptr %7, align 1
  call void @llvm.lifetime.start.p0(i64 24, ptr %8) #8
  call void @llvm.lifetime.start.p0(i64 8, ptr %9) #8
  call void @llvm.lifetime.start.p0(i64 168, ptr %10) #8
  call void @llvm.memcpy.p0.p0.i64(ptr align 8 %10, ptr align 8 getelementptr inbounds nuw (%struct._psqlSettings, ptr @pset, i32 0, i32 6), i64 168, i1 false)
  call void @llvm.lifetime.start.p0(i64 1, ptr %11) #8
  store i8 0, ptr %11, align 1
  call void @initPQExpBuffer(ptr noundef %8)
  call void (ptr, ptr, ...) @printfPQExpBuffer(ptr noundef %8, ptr noundef @.str.565, ptr noundef @.str.566, ptr noundef @.str.567, ptr noundef @.str.568, ptr noundef @.str.569, ptr noundef @.str.61, ptr noundef @.str.62, ptr noundef @.str.346)
  %14 = load i8, ptr %7, align 1, !range !4, !noundef !5
  %15 = trunc i8 %14 to i1
  br i1 %15, label %16, label %17

16:                                               ; preds = %3
  call void (ptr, ptr, ...) @appendPQExpBuffer(ptr noundef %8, ptr noundef @.str.570, ptr noundef @.str.571, ptr noundef @.str.26)
  br label %17

17:                                               ; preds = %16, %3
  call void @appendPQExpBufferStr(ptr noundef %8, ptr noundef @.str.572)
  %18 = load i8, ptr %7, align 1, !range !4, !noundef !5
  %19 = trunc i8 %18 to i1
  br i1 %19, label %20, label %21

20:                                               ; preds = %17
  call void @appendPQExpBufferStr(ptr noundef %8, ptr noundef @.str.573)
  br label %21

21:                                               ; preds = %20, %17
  %22 = load ptr, ptr %5, align 8
  %23 = icmp ne ptr %22, null
  br i1 %23, label %24, label %29

24:                                               ; preds = %21
  %25 = load ptr, ptr %5, align 8
  %26 = call zeroext i1 @validateSQLNamePattern(ptr noundef %8, ptr noundef %25, i1 noundef zeroext false, i1 noundef zeroext false, ptr noundef null, ptr noundef @.str.574, ptr noundef null, ptr noundef null, ptr noundef %11, i32 noundef 1)
  br i1 %26, label %28, label %27

27:                                               ; preds = %24
  br label %55

28:                                               ; preds = %24
  br label %29

29:                                               ; preds = %28, %21
  %30 = load ptr, ptr %6, align 8
  %31 = icmp ne ptr %30, null
  br i1 %31, label %32, label %39

32:                                               ; preds = %29
  %33 = load ptr, ptr %6, align 8
  %34 = load i8, ptr %11, align 1, !range !4, !noundef !5
  %35 = trunc i8 %34 to i1
  %36 = call zeroext i1 @validateSQLNamePattern(ptr noundef %8, ptr noundef %33, i1 noundef zeroext %35, i1 noundef zeroext false, ptr noundef @.str.575, ptr noundef @.str.108, ptr noundef @.str.109, ptr noundef @.str.110, ptr noundef null, i32 noundef 3)
  br i1 %36, label %38, label %37

37:                                               ; preds = %32
  br label %55

38:                                               ; preds = %32
  br label %39

39:                                               ; preds = %38, %29
  call void @appendPQExpBufferStr(ptr noundef %8, ptr noundef @.str.12)
  %40 = getelementptr inbounds nuw %struct.PQExpBufferData, ptr %8, i32 0, i32 0
  %41 = load ptr, ptr %40, align 8
  %42 = call ptr @PSQLexec(ptr noundef %41)
  store ptr %42, ptr %9, align 8
  call void @termPQExpBuffer(ptr noundef %8)
  %43 = load ptr, ptr %9, align 8
  %44 = icmp ne ptr %43, null
  br i1 %44, label %46, label %45

45:                                               ; preds = %39
  store i1 false, ptr %4, align 1
  store i32 1, ptr %12, align 4
  br label %56

46:                                               ; preds = %39
  %47 = getelementptr inbounds nuw %struct.printQueryOpt, ptr %10, i32 0, i32 2
  store ptr @.str.576, ptr %47, align 8
  %48 = getelementptr inbounds nuw %struct.printQueryOpt, ptr %10, i32 0, i32 4
  store i8 1, ptr %48, align 8
  %49 = getelementptr inbounds nuw %struct.printQueryOpt, ptr %10, i32 0, i32 5
  store ptr @listOperatorClasses.translate_columns, ptr %49, align 8
  %50 = getelementptr inbounds nuw %struct.printQueryOpt, ptr %10, i32 0, i32 6
  store i32 7, ptr %50, align 8
  %51 = load ptr, ptr %9, align 8
  %52 = load ptr, ptr getelementptr inbounds nuw (%struct._psqlSettings, ptr @pset, i32 0, i32 2), align 8
  %53 = load ptr, ptr getelementptr inbounds nuw (%struct._psqlSettings, ptr @pset, i32 0, i32 28), align 8
  call void @printQuery(ptr noundef %51, ptr noundef %10, ptr noundef %52, i1 noundef zeroext false, ptr noundef %53)
  %54 = load ptr, ptr %9, align 8
  call void @PQclear(ptr noundef %54)
  store i1 true, ptr %4, align 1
  store i32 1, ptr %12, align 4
  br label %56

55:                                               ; preds = %37, %27
  call void @termPQExpBuffer(ptr noundef %8)
  store i1 false, ptr %4, align 1
  store i32 1, ptr %12, align 4
  br label %56

56:                                               ; preds = %55, %46, %45
  call void @llvm.lifetime.end.p0(i64 1, ptr %11) #8
  call void @llvm.lifetime.end.p0(i64 168, ptr %10) #8
  call void @llvm.lifetime.end.p0(i64 8, ptr %9) #8
  call void @llvm.lifetime.end.p0(i64 24, ptr %8) #8
  %57 = load i1, ptr %4, align 1
  ret i1 %57
}